
v-bios-th.elf:     file format elf32-littlearm


Disassembly of section .text:

00000000 <TH_START>:
   0:	ea000005 	b	1c <HandleReset>
   4:	0000011c 	.word	0x0000011c
   8:	00000120 	.word	0x00000120
   c:	00000124 	.word	0x00000124
  10:	00000128 	.word	0x00000128
  14:	0000012c 	.word	0x0000012c
  18:	00000130 	.word	0x00000130

0000001c <HandleReset>:
  1c:	e329f0d3 	msr	CPSR_fc, #211	; 0xd3
  20:	e3a0da01 	mov	sp, #4096	; 0x1000
  24:	eb000004 	bl	3c <AsmInitWatchDog>
  28:	eb000007 	bl	4c <AsmInitClock>
  2c:	eb00000e 	bl	6c <AsmInitUart>
  30:	eb000025 	bl	cc <AsminitSDRAM>
  34:	eb0000b1 	bl	300 <main>

00000038 <loop>:
  38:	eafffffe 	b	38 <loop>

0000003c <AsmInitWatchDog>:
  3c:	e3a03453 	mov	r3, #1392508928	; 0x53000000
  40:	e3a04000 	mov	r4, #0	; 0x0
  44:	e5834000 	str	r4, [r3]
  48:	e12fff1e 	bx	lr

0000004c <AsmInitClock>:
  4c:	e3a03313 	mov	r3, #1275068416	; 0x4c000000
  50:	e3e044ff 	mvn	r4, #-16777216	; 0xff000000
  54:	e5834000 	str	r4, [r3]
  58:	e59f4128 	ldr	r4, [pc, #296]	; 188 <RamctlConst+0x34>
  5c:	e5834004 	str	r4, [r3, #4]
  60:	e3a04005 	mov	r4, #5	; 0x5
  64:	e5834014 	str	r4, [r3, #20]
  68:	e12fff1e 	bx	lr

0000006c <AsmInitUart>:
  6c:	e59f2118 	ldr	r2, [pc, #280]	; 18c <RamctlConst+0x38>
  70:	e59f3118 	ldr	r3, [pc, #280]	; 190 <RamctlConst+0x3c>
  74:	e5823000 	str	r3, [r2]
  78:	e59f2114 	ldr	r2, [pc, #276]	; 194 <RamctlConst+0x40>
  7c:	e59f3114 	ldr	r3, [pc, #276]	; 198 <RamctlConst+0x44>
  80:	e5823000 	str	r3, [r2]
  84:	e3a02205 	mov	r2, #1342177280	; 0x50000000
  88:	e3a03003 	mov	r3, #3	; 0x3
  8c:	e5823000 	str	r3, [r2]
  90:	e3a02245 	mov	r2, #1342177284	; 0x50000004
  94:	e59f3100 	ldr	r3, [pc, #256]	; 19c <RamctlConst+0x48>
  98:	e5823000 	str	r3, [r2]
  9c:	e3a02285 	mov	r2, #1342177288	; 0x50000008
  a0:	e3a03000 	mov	r3, #0	; 0x0
  a4:	e5823000 	str	r3, [r2]
  a8:	e59f30f0 	ldr	r3, [pc, #240]	; 1a0 <RamctlConst+0x4c>
  ac:	e3a0401a 	mov	r4, #26	; 0x1a
  b0:	e5834000 	str	r4, [r3]
  b4:	e59f30e8 	ldr	r3, [pc, #232]	; 1a4 <RamctlConst+0x50>
  b8:	e3a04000 	mov	r4, #0	; 0x0
  bc:	e2433001 	sub	r3, r3, #1	; 0x1
  c0:	e1530004 	cmp	r3, r4
  c4:	1afffffc 	bne	bc <AsmInitUart+0x50>
  c8:	e12fff1e 	bx	lr

000000cc <AsminitSDRAM>:
  cc:	e3a00312 	mov	r0, #1207959552	; 0x48000000
  d0:	e59f10d0 	ldr	r1, [pc, #208]	; 1a8 <RamctlConst+0x54>
  d4:	e3a03000 	mov	r3, #0	; 0x0
  d8:	e5912000 	ldr	r2, [r1]
  dc:	e4802004 	str	r2, [r0], #4
  e0:	e2811004 	add	r1, r1, #4	; 0x4
  e4:	e2833001 	add	r3, r3, #1	; 0x1
  e8:	e353000d 	cmp	r3, #13	; 0xd
  ec:	1afffff9 	bne	d8 <AsminitSDRAM+0xc>
  f0:	e59f00ac 	ldr	r0, [pc, #172]	; 1a4 <RamctlConst+0x50>
  f4:	e2400001 	sub	r0, r0, #1	; 0x1
  f8:	e3500000 	cmp	r0, #0	; 0x0
  fc:	1afffffc 	bne	f4 <AsminitSDRAM+0x28>
 100:	e3a00203 	mov	r0, #805306368	; 0x30000000
 104:	e59f10a0 	ldr	r1, [pc, #160]	; 1ac <RamctlConst+0x58>
 108:	e5801000 	str	r1, [r0]
 10c:	e5902000 	ldr	r2, [r0]
 110:	e1510002 	cmp	r1, r2
 114:	1afffffb 	bne	108 <AsminitSDRAM+0x3c>
 118:	e12fff1e 	bx	lr

0000011c <HandleUndefine>:
 11c:	ea000004 	b	134 <Hang>

00000120 <HandleSwi>:
 120:	ea000003 	b	134 <Hang>

00000124 <HandleIabt>:
 124:	ea000002 	b	134 <Hang>

00000128 <HandleDabt>:
 128:	ea000001 	b	134 <Hang>

0000012c <HandleIrq>:
 12c:	ea000000 	b	134 <Hang>

00000130 <HandleFiq>:
 130:	eaffffff 	b	134 <Hang>

00000134 <Hang>:
 134:	eafffffe 	b	134 <Hang>

00000138 <BootLoaderMsg>:
 138:	636c6557 	.word	0x636c6557
 13c:	20656d6f 	.word	0x20656d6f
 140:	6d206f74 	.word	0x6d206f74
 144:	20492c65 	.word	0x20492c65
 148:	76206d61 	.word	0x76206d61
 14c:	6f69622d 	.word	0x6f69622d
 150:	000a0d73 	.word	0x000a0d73

00000154 <RamctlConst>:
 154:	220dd000 	.word	0x220dd000
 158:	00000700 	.word	0x00000700
 15c:	00000700 	.word	0x00000700
 160:	00000700 	.word	0x00000700
 164:	00000700 	.word	0x00000700
 168:	00000700 	.word	0x00000700
 16c:	00000700 	.word	0x00000700
 170:	00018009 	.word	0x00018009
 174:	00018009 	.word	0x00018009
 178:	00ac03f4 	.word	0x00ac03f4
 17c:	000000b2 	.word	0x000000b2
 180:	00000030 	.word	0x00000030
 184:	00000030 	.word	0x00000030
 188:	0007f021 	.word	0x0007f021
 18c:	56000070 	.word	0x56000070
 190:	0016faaa 	.word	0x0016faaa
 194:	56000078 	.word	0x56000078
 198:	000007ff 	.word	0x000007ff
 19c:	00000245 	.word	0x00000245
 1a0:	50000028 	.word	0x50000028
 1a4:	0000ffff 	.word	0x0000ffff
 1a8:	00000154 	.word	0x00000154
 1ac:	55aa55aa 	.word	0x55aa55aa
 1b0:	64616f4c 	.word	0x64616f4c
 1b4:	6d6f7246 	.word	0x6d6f7246
 1b8:	73616c46 	.word	0x73616c46
 1bc:	0068      	.short	0x0068
 1be:	0000      	.short	0x0000
 1c0:	ff000010 	.word	0xff000010

000001c4 <LoadFromFlash>:
 1c4:	e3a00000 	mov	r0, #0	; 0x0
 1c8:	e12fff1e 	bx	lr
 1cc:	616c6544 	.word	0x616c6544
 1d0:	0079      	.short	0x0079
 1d2:	0000      	.short	0x0000
 1d4:	ff000008 	.word	0xff000008

000001d8 <Delay>:
 1d8:	e12fff1e 	bx	lr
 1dc:	6e494854 	.word	0x6e494854
 1e0:	6c437469 	.word	0x6c437469
 1e4:	006b636f 	.word	0x006b636f
 1e8:	ff00000c 	.word	0xff00000c

000001ec <THInitClock>:
 1ec:	e12fff1e 	bx	lr
 1f0:	6e494854 	.word	0x6e494854
 1f4:	556e7469 	.word	0x556e7469
 1f8:	00747261 	.word	0x00747261
 1fc:	ff00000c 	.word	0xff00000c

00000200 <THInitnUart>:
 200:	e12fff1e 	bx	lr
 204:	6e494854 	.word	0x6e494854
 208:	6c467469 	.word	0x6c467469
 20c:	00687361 	.word	0x00687361
 210:	ff00000c 	.word	0xff00000c

00000214 <THInitFlash>:
 214:	e12fff1e 	bx	lr
 218:	6e494854 	.word	0x6e494854
 21c:	44537469 	.word	0x44537469
 220:	004d4152 	.word	0x004d4152
 224:	ff00000c 	.word	0xff00000c

00000228 <THInitSDRAM>:
 228:	e12fff1e 	bx	lr
 22c:	64616f4c 	.word	0x64616f4c
 230:	6d6f7246 	.word	0x6d6f7246
 234:	74726155 	.word	0x74726155
 238:	00          	.byte	0x00
 239:	00          	.byte	0x00
 23a:	0000      	.short	0x0000
 23c:	ff000010 	.word	0xff000010

00000240 <LoadFromUart>:
 240:	e1a0c00d 	mov	ip, sp
 244:	e92dd800 	push	{fp, ip, lr, pc}
 248:	e3a00433 	mov	r0, #855638016	; 0x33000000
 24c:	e24cb004 	sub	fp, ip, #4	; 0x4
 250:	eb00003d 	bl	34c <v_bios_serial_load>
 254:	e3a03c55 	mov	r3, #21760	; 0x5500
 258:	e3a02433 	mov	r2, #855638016	; 0x33000000
 25c:	e5921000 	ldr	r1, [r2]
 260:	e28330aa 	add	r3, r3, #170	; 0xaa
 264:	e1833803 	orr	r3, r3, r3, lsl #16
 268:	e1510003 	cmp	r1, r3
 26c:	159f0008 	ldrne	r0, [pc, #8]	; 27c <LoadFromUart+0x3c>
 270:	1b0000ff 	blne	674 <ShowString>
 274:	e3a00000 	mov	r0, #0	; 0x0
 278:	e89da800 	ldm	sp, {fp, sp, pc}
 27c:	000008e4 	.word	0x000008e4
 280:	6f4c4854 	.word	0x6f4c4854
 284:	48426461 	.word	0x48426461
 288:	00          	.byte	0x00
 289:	00          	.byte	0x00
 28a:	0000      	.short	0x0000
 28c:	ff00000c 	.word	0xff00000c

00000290 <THLoadBH>:
 290:	e1a0c00d 	mov	ip, sp
 294:	e92dd830 	push	{r4, r5, fp, ip, lr, pc}
 298:	e59f004c 	ldr	r0, [pc, #76]	; 2ec <THLoadBH+0x5c>
 29c:	e24cb004 	sub	fp, ip, #4	; 0x4
 2a0:	eb0000f3 	bl	674 <ShowString>
 2a4:	e3a04433 	mov	r4, #855638016	; 0x33000000
 2a8:	eb0000da 	bl	618 <Uart0GetChar>
 2ac:	e3500030 	cmp	r0, #48	; 0x30
 2b0:	0a000006 	beq	2d0 <THLoadBH+0x40>
 2b4:	e3500031 	cmp	r0, #49	; 0x31
 2b8:	0a000006 	beq	2d8 <THLoadBH+0x48>
 2bc:	e59f002c 	ldr	r0, [pc, #44]	; 2f0 <THLoadBH+0x60>
 2c0:	eb0000eb 	bl	674 <ShowString>
 2c4:	eb0000d3 	bl	618 <Uart0GetChar>
 2c8:	e3500030 	cmp	r0, #48	; 0x30
 2cc:	1afffff8 	bne	2b4 <THLoadBH+0x24>
 2d0:	eb0000dc 	bl	648 <Uart0PrintChar>
 2d4:	eafffff3 	b	2a8 <THLoadBH+0x18>
 2d8:	eb0000da 	bl	648 <Uart0PrintChar>
 2dc:	ebffffd7 	bl	240 <LoadFromUart>
 2e0:	e1a0e00f 	mov	lr, pc
 2e4:	e12fff14 	bx	r4
 2e8:	eaffffee 	b	2a8 <THLoadBH+0x18>
 2ec:	000008fc 	.word	0x000008fc
 2f0:	00000928 	.word	0x00000928
 2f4:	6e69616d 	.word	0x6e69616d
 2f8:	00          	.byte	0x00
 2f9:	00          	.byte	0x00
 2fa:	0000      	.short	0x0000
 2fc:	ff000008 	.word	0xff000008

00000300 <main>:
 300:	e1a0c00d 	mov	ip, sp
 304:	e92dd800 	push	{fp, ip, lr, pc}
 308:	e59f0020 	ldr	r0, [pc, #32]	; 330 <main+0x30>
 30c:	e24cb004 	sub	fp, ip, #4	; 0x4
 310:	eb0000d7 	bl	674 <ShowString>
 314:	eb000121 	bl	7a0 <init_flash>
 318:	ebffffdc 	bl	290 <THLoadBH>
 31c:	e3a03433 	mov	r3, #855638016	; 0x33000000
 320:	e1a0e00f 	mov	lr, pc
 324:	e12fff13 	bx	r3
 328:	e3a00000 	mov	r0, #0	; 0x0
 32c:	e89da800 	ldm	sp, {fp, sp, pc}
 330:	0000094c 	.word	0x0000094c
 334:	69625f76 	.word	0x69625f76
 338:	735f736f 	.word	0x735f736f
 33c:	61697265 	.word	0x61697265
 340:	6f6c5f6c 	.word	0x6f6c5f6c
 344:	6461      	.short	0x6461
 346:	00          	.byte	0x00
 347:	00          	.byte	0x00
 348:	ff000014 	.word	0xff000014

0000034c <v_bios_serial_load>:
 34c:	e1a0c00d 	mov	ip, sp
 350:	e92ddff0 	push	{r4, r5, r6, r7, r8, r9, sl, fp, ip, lr, pc}
 354:	e24cb004 	sub	fp, ip, #4	; 0x4
 358:	e24dd09c 	sub	sp, sp, #156	; 0x9c
 35c:	e1a0a000 	mov	sl, r0
 360:	e3a04000 	mov	r4, #0	; 0x0
 364:	e3540009 	cmp	r4, #9	; 0x9
 368:	979ff104 	ldrls	pc, [pc, r4, lsl #2]
 36c:	eafffffc 	b	364 <v_bios_serial_load+0x18>
 370:	00000558 	.word	0x00000558
 374:	00000548 	.word	0x00000548
 378:	00000568 	.word	0x00000568
 37c:	00000434 	.word	0x00000434
 380:	0000047c 	.word	0x0000047c
 384:	0000044c 	.word	0x0000044c
 388:	000004c4 	.word	0x000004c4
 38c:	000003b0 	.word	0x000003b0
 390:	000003a0 	.word	0x000003a0
 394:	00000398 	.word	0x00000398
 398:	e24bd028 	sub	sp, fp, #40	; 0x28
 39c:	e89daff0 	ldm	sp, {r4, r5, r6, r7, r8, r9, sl, fp, sp, pc}
 3a0:	e3580044 	cmp	r8, #68	; 0x44
 3a4:	0a000076 	beq	584 <v_bios_serial_load+0x238>
 3a8:	e3a04000 	mov	r4, #0	; 0x0
 3ac:	eaffffec 	b	364 <v_bios_serial_load+0x18>
 3b0:	e2892020 	add	r2, r9, #32	; 0x20
 3b4:	e54b2030 	strb	r2, [fp, #-48]
 3b8:	e55b3030 	ldrb	r3, [fp, #-48]
 3bc:	e2833071 	add	r3, r3, #113	; 0x71
 3c0:	e20330ff 	and	r3, r3, #255	; 0xff
 3c4:	e0833323 	add	r3, r3, r3, lsr #6
 3c8:	e3a0c001 	mov	ip, #1	; 0x1
 3cc:	e203303f 	and	r3, r3, #63	; 0x3f
 3d0:	e2833020 	add	r3, r3, #32	; 0x20
 3d4:	e1a0000c 	mov	r0, ip
 3d8:	e3a02023 	mov	r2, #35	; 0x23
 3dc:	e3a0104e 	mov	r1, #78	; 0x4e
 3e0:	e3a0400d 	mov	r4, #13	; 0xd
 3e4:	e54b2031 	strb	r2, [fp, #-49]
 3e8:	e54b102f 	strb	r1, [fp, #-47]
 3ec:	e54b302e 	strb	r3, [fp, #-46]
 3f0:	e54bc032 	strb	ip, [fp, #-50]
 3f4:	e54b402d 	strb	r4, [fp, #-45]
 3f8:	eb000092 	bl	648 <Uart0PrintChar>
 3fc:	e55b0031 	ldrb	r0, [fp, #-49]
 400:	eb000090 	bl	648 <Uart0PrintChar>
 404:	e55b0030 	ldrb	r0, [fp, #-48]
 408:	eb00008e 	bl	648 <Uart0PrintChar>
 40c:	e55b002f 	ldrb	r0, [fp, #-47]
 410:	eb00008c 	bl	648 <Uart0PrintChar>
 414:	e55b002e 	ldrb	r0, [fp, #-46]
 418:	eb00008a 	bl	648 <Uart0PrintChar>
 41c:	e1a00004 	mov	r0, r4
 420:	eb000088 	bl	648 <Uart0PrintChar>
 424:	e3580042 	cmp	r8, #66	; 0x42
 428:	1affffde 	bne	3a8 <v_bios_serial_load+0x5c>
 42c:	e3a04009 	mov	r4, #9	; 0x9
 430:	eaffffcb 	b	364 <v_bios_serial_load+0x18>
 434:	eb000077 	bl	618 <Uart0GetChar>
 438:	e0803006 	add	r3, r0, r6
 43c:	e20360ff 	and	r6, r3, #255	; 0xff
 440:	e1a08000 	mov	r8, r0
 444:	e3a04004 	mov	r4, #4	; 0x4
 448:	eaffffc5 	b	364 <v_bios_serial_load+0x18>
 44c:	e24b202c 	sub	r2, fp, #44	; 0x2c
 450:	e0823005 	add	r3, r2, r5
 454:	e5531089 	ldrb	r1, [r3, #-137]
 458:	e0612006 	rsb	r2, r1, r6
 45c:	e20260ff 	and	r6, r2, #255	; 0xff
 460:	e0863326 	add	r3, r6, r6, lsr #6
 464:	e203303f 	and	r3, r3, #63	; 0x3f
 468:	e2833020 	add	r3, r3, #32	; 0x20
 46c:	e1510003 	cmp	r1, r3
 470:	03a04006 	moveq	r4, #6	; 0x6
 474:	13a04007 	movne	r4, #7	; 0x7
 478:	eaffffb9 	b	364 <v_bios_serial_load+0x18>
 47c:	e3a05000 	mov	r5, #0	; 0x0
 480:	ea000002 	b	490 <v_bios_serial_load+0x144>
 484:	e5420088 	strb	r0, [r2, #-136]
 488:	e20360ff 	and	r6, r3, #255	; 0xff
 48c:	e20150ff 	and	r5, r1, #255	; 0xff
 490:	eb000060 	bl	618 <Uart0GetChar>
 494:	e24b302c 	sub	r3, fp, #44	; 0x2c
 498:	e350000d 	cmp	r0, #13	; 0xd
 49c:	e0832005 	add	r2, r3, r5
 4a0:	e2851001 	add	r1, r5, #1	; 0x1
 4a4:	e0863000 	add	r3, r6, r0
 4a8:	1afffff5 	bne	484 <v_bios_serial_load+0x138>
 4ac:	e3550000 	cmp	r5, #0	; 0x0
 4b0:	12453001 	subne	r3, r5, #1	; 0x1
 4b4:	01a07005 	moveq	r7, r5
 4b8:	120370ff 	andne	r7, r3, #255	; 0xff
 4bc:	e3a04005 	mov	r4, #5	; 0x5
 4c0:	eaffffa7 	b	364 <v_bios_serial_load+0x18>
 4c4:	e2892020 	add	r2, r9, #32	; 0x20
 4c8:	e54b2030 	strb	r2, [fp, #-48]
 4cc:	e55b3030 	ldrb	r3, [fp, #-48]
 4d0:	e283307c 	add	r3, r3, #124	; 0x7c
 4d4:	e20330ff 	and	r3, r3, #255	; 0xff
 4d8:	e0833323 	add	r3, r3, r3, lsr #6
 4dc:	e3a0c001 	mov	ip, #1	; 0x1
 4e0:	e203303f 	and	r3, r3, #63	; 0x3f
 4e4:	e2833020 	add	r3, r3, #32	; 0x20
 4e8:	e1a0000c 	mov	r0, ip
 4ec:	e3a02023 	mov	r2, #35	; 0x23
 4f0:	e3a01059 	mov	r1, #89	; 0x59
 4f4:	e3a0400d 	mov	r4, #13	; 0xd
 4f8:	e54b2031 	strb	r2, [fp, #-49]
 4fc:	e54b102f 	strb	r1, [fp, #-47]
 500:	e54b302e 	strb	r3, [fp, #-46]
 504:	e54bc032 	strb	ip, [fp, #-50]
 508:	e54b402d 	strb	r4, [fp, #-45]
 50c:	eb00004d 	bl	648 <Uart0PrintChar>
 510:	e55b0031 	ldrb	r0, [fp, #-49]
 514:	eb00004b 	bl	648 <Uart0PrintChar>
 518:	e55b0030 	ldrb	r0, [fp, #-48]
 51c:	eb000049 	bl	648 <Uart0PrintChar>
 520:	e55b002f 	ldrb	r0, [fp, #-47]
 524:	eb000047 	bl	648 <Uart0PrintChar>
 528:	e55b002e 	ldrb	r0, [fp, #-46]
 52c:	eb000045 	bl	648 <Uart0PrintChar>
 530:	e1a00004 	mov	r0, r4
 534:	eb000043 	bl	648 <Uart0PrintChar>
 538:	e3580042 	cmp	r8, #66	; 0x42
 53c:	13a04008 	movne	r4, #8	; 0x8
 540:	03a04009 	moveq	r4, #9	; 0x9
 544:	eaffff86 	b	364 <v_bios_serial_load+0x18>
 548:	eb000032 	bl	618 <Uart0GetChar>
 54c:	e3a04002 	mov	r4, #2	; 0x2
 550:	e1a06000 	mov	r6, r0
 554:	eaffff82 	b	364 <v_bios_serial_load+0x18>
 558:	eb00002e 	bl	618 <Uart0GetChar>
 55c:	e3500001 	cmp	r0, #1	; 0x1
 560:	03a04001 	moveq	r4, #1	; 0x1
 564:	eaffff7e 	b	364 <v_bios_serial_load+0x18>
 568:	eb00002a 	bl	618 <Uart0GetChar>
 56c:	e0803006 	add	r3, r0, r6
 570:	e2400020 	sub	r0, r0, #32	; 0x20
 574:	e20360ff 	and	r6, r3, #255	; 0xff
 578:	e20090ff 	and	r9, r0, #255	; 0xff
 57c:	e3a04003 	mov	r4, #3	; 0x3
 580:	eaffff77 	b	364 <v_bios_serial_load+0x18>
 584:	e3570000 	cmp	r7, #0	; 0x0
 588:	01a04007 	moveq	r4, r7
 58c:	01a05007 	moveq	r5, r7
 590:	0affff73 	beq	364 <v_bios_serial_load+0x18>
 594:	e3a05000 	mov	r5, #0	; 0x0
 598:	ea000004 	b	5b0 <v_bios_serial_load+0x264>
 59c:	e2853001 	add	r3, r5, #1	; 0x1
 5a0:	e20350ff 	and	r5, r3, #255	; 0xff
 5a4:	e1570005 	cmp	r7, r5
 5a8:	e4ca2001 	strb	r2, [sl], #1
 5ac:	9affff7d 	bls	3a8 <v_bios_serial_load+0x5c>
 5b0:	e24b202c 	sub	r2, fp, #44	; 0x2c
 5b4:	e0823005 	add	r3, r2, r5
 5b8:	e5532088 	ldrb	r2, [r3, #-136]
 5bc:	e3520023 	cmp	r2, #35	; 0x23
 5c0:	1afffff5 	bne	59c <v_bios_serial_load+0x250>
 5c4:	e2853001 	add	r3, r5, #1	; 0x1
 5c8:	e20350ff 	and	r5, r3, #255	; 0xff
 5cc:	e24b302c 	sub	r3, fp, #44	; 0x2c
 5d0:	e0832005 	add	r2, r3, r5
 5d4:	e5522088 	ldrb	r2, [r2, #-136]
 5d8:	e1a032a2 	lsr	r3, r2, #5
 5dc:	e2033003 	and	r3, r3, #3	; 0x3
 5e0:	e3530002 	cmp	r3, #2	; 0x2
 5e4:	020220bf 	andeq	r2, r2, #191	; 0xbf
 5e8:	0affffeb 	beq	59c <v_bios_serial_load+0x250>
 5ec:	e352003f 	cmp	r2, #63	; 0x3f
 5f0:	03a0207f 	moveq	r2, #127	; 0x7f
 5f4:	0affffe8 	beq	59c <v_bios_serial_load+0x250>
 5f8:	e35200bf 	cmp	r2, #191	; 0xbf
 5fc:	03a020ff 	moveq	r2, #255	; 0xff
 600:	eaffffe5 	b	59c <v_bios_serial_load+0x250>
 604:	74726155 	.word	0x74726155
 608:	74654730 	.word	0x74654730
 60c:	72616843 	.word	0x72616843
 610:	00          	.byte	0x00
 611:	00          	.byte	0x00
 612:	0000      	.short	0x0000
 614:	ff000010 	.word	0xff000010

00000618 <Uart0GetChar>:
 618:	e3a02205 	mov	r2, #1342177280	; 0x50000000
 61c:	e5923010 	ldr	r3, [r2, #16]
 620:	e3130001 	tst	r3, #1	; 0x1
 624:	0afffffc 	beq	61c <Uart0GetChar+0x4>
 628:	e3a03205 	mov	r3, #1342177280	; 0x50000000
 62c:	e5d30024 	ldrb	r0, [r3, #36]
 630:	e12fff1e 	bx	lr
 634:	74726155 	.word	0x74726155
 638:	69725030 	.word	0x69725030
 63c:	6843746e 	.word	0x6843746e
 640:	7261      	.short	0x7261
 642:	00          	.byte	0x00
 643:	00          	.byte	0x00
 644:	ff000010 	.word	0xff000010

00000648 <Uart0PrintChar>:
 648:	e3a02205 	mov	r2, #1342177280	; 0x50000000
 64c:	e5923010 	ldr	r3, [r2, #16]
 650:	e3130004 	tst	r3, #4	; 0x4
 654:	0afffffc 	beq	64c <Uart0PrintChar+0x4>
 658:	e3a03205 	mov	r3, #1342177280	; 0x50000000
 65c:	e5c30020 	strb	r0, [r3, #32]
 660:	e12fff1e 	bx	lr
 664:	776f6853 	.word	0x776f6853
 668:	69727453 	.word	0x69727453
 66c:	676e      	.short	0x676e
 66e:	00          	.byte	0x00
 66f:	00          	.byte	0x00
 670:	ff00000c 	.word	0xff00000c

00000674 <ShowString>:
 674:	e5d02000 	ldrb	r2, [r0]
 678:	e3520000 	cmp	r2, #0	; 0x0
 67c:	012fff1e 	bxeq	lr
 680:	e3a01205 	mov	r1, #1342177280	; 0x50000000
 684:	e5913010 	ldr	r3, [r1, #16]
 688:	e3130004 	tst	r3, #4	; 0x4
 68c:	0afffffc 	beq	684 <ShowString+0x10>
 690:	e5c12020 	strb	r2, [r1, #32]
 694:	e5f02001 	ldrb	r2, [r0, #1]!
 698:	e3520000 	cmp	r2, #0	; 0x0
 69c:	1afffff8 	bne	684 <ShowString+0x10>
 6a0:	e12fff1e 	bx	lr
 6a4:	70656562 	.word	0x70656562
 6a8:	00          	.byte	0x00
 6a9:	00          	.byte	0x00
 6aa:	0000      	.short	0x0000
 6ac:	ff000008 	.word	0xff000008

000006b0 <beep>:
 6b0:	e3500001 	cmp	r0, #1	; 0x1
 6b4:	e3a02456 	mov	r2, #1442840576	; 0x56000000
 6b8:	e3a03001 	mov	r3, #1	; 0x1
 6bc:	e5823010 	str	r3, [r2, #16]
 6c0:	13e03001 	mvnne	r3, #1	; 0x1
 6c4:	05820014 	streq	r0, [r2, #20]
 6c8:	15823014 	strne	r3, [r2, #20]
 6cc:	e12fff1e 	bx	lr
 6d0:	646e616e 	.word	0x646e616e
 6d4:	646d635f 	.word	0x646d635f
 6d8:	00          	.byte	0x00
 6d9:	00          	.byte	0x00
 6da:	0000      	.short	0x0000
 6dc:	ff00000c 	.word	0xff00000c

000006e0 <nand_cmd>:
 6e0:	e12fff1e 	bx	lr
 6e4:	705f7369 	.word	0x705f7369
 6e8:	7265776f 	.word	0x7265776f
 6ec:	0032      	.short	0x0032
 6ee:	0000      	.short	0x0000
 6f0:	ff00000c 	.word	0xff00000c

000006f4 <is_power2>:
 6f4:	e2403001 	sub	r3, r0, #1	; 0x1
 6f8:	e1130000 	tst	r3, r0
 6fc:	13a00000 	movne	r0, #0	; 0x0
 700:	03a00001 	moveq	r0, #1	; 0x1
 704:	e12fff1e 	bx	lr
 708:	646e6966 	.word	0x646e6966
 70c:	7364695f 	.word	0x7364695f
 710:	00          	.byte	0x00
 711:	00          	.byte	0x00
 712:	0000      	.short	0x0000
 714:	ff00000c 	.word	0xff00000c

00000718 <find_ids>:
 718:	e59f1028 	ldr	r1, [pc, #40]	; 748 <find_ids+0x30>
 71c:	e3a02000 	mov	r2, #0	; 0x0
 720:	e7d13002 	ldrb	r3, [r1, r2]
 724:	e1530000 	cmp	r3, r0
 728:	e2822001 	add	r2, r2, #1	; 0x1
 72c:	0a000003 	beq	740 <find_ids+0x28>
 730:	e3520014 	cmp	r2, #20	; 0x14
 734:	1afffff9 	bne	720 <find_ids+0x8>
 738:	e3a00000 	mov	r0, #0	; 0x0
 73c:	e12fff1e 	bx	lr
 740:	e3a00001 	mov	r0, #1	; 0x1
 744:	e12fff1e 	bx	lr
 748:	00000984 	.word	0x00000984
 74c:	646e616e 	.word	0x646e616e
 750:	6165725f 	.word	0x6165725f
 754:	7964      	.short	0x7964
 756:	00          	.byte	0x00
 757:	00          	.byte	0x00
 758:	ff00000c 	.word	0xff00000c

0000075c <nand_ready>:
 75c:	e3a02000 	mov	r2, #0	; 0x0
 760:	e3a0c44e 	mov	ip, #1308622848	; 0x4e000000
 764:	e3e014ff 	mvn	r1, #-16777216	; 0xff000000
 768:	ea000001 	b	774 <nand_ready+0x18>
 76c:	e1520001 	cmp	r2, r1
 770:	0a000005 	beq	78c <nand_ready+0x30>
 774:	e5dc3020 	ldrb	r3, [ip, #32]
 778:	e2130001 	ands	r0, r3, #1	; 0x1
 77c:	e2822001 	add	r2, r2, #1	; 0x1
 780:	0afffff9 	beq	76c <nand_ready+0x10>
 784:	e3a00001 	mov	r0, #1	; 0x1
 788:	e12fff1e 	bx	lr
 78c:	e12fff1e 	bx	lr
 790:	74696e69 	.word	0x74696e69
 794:	616c665f 	.word	0x616c665f
 798:	6873      	.short	0x6873
 79a:	00          	.byte	0x00
 79b:	00          	.byte	0x00
 79c:	ff00000c 	.word	0xff00000c

000007a0 <init_flash>:
 7a0:	e3a0344e 	mov	r3, #1308622848	; 0x4e000000
 7a4:	e1a0c00d 	mov	ip, sp
 7a8:	e92dd830 	push	{r4, r5, fp, ip, lr, pc}
 7ac:	e1a02003 	mov	r2, r3
 7b0:	e59f511c 	ldr	r5, [pc, #284]	; 8d4 <init_flash+0x134>
 7b4:	e1a01003 	mov	r1, r3
 7b8:	e2822010 	add	r2, r2, #16	; 0x10
 7bc:	e283300c 	add	r3, r3, #12	; 0xc
 7c0:	e585300c 	str	r3, [r5, #12]
 7c4:	e5852008 	str	r2, [r5, #8]
 7c8:	e3a0344e 	mov	r3, #1308622848	; 0x4e000000
 7cc:	e3a02d91 	mov	r2, #9280	; 0x2440
 7d0:	e2811008 	add	r1, r1, #8	; 0x8
 7d4:	e1c320b0 	strh	r2, [r3]
 7d8:	e3a02001 	mov	r2, #1	; 0x1
 7dc:	e5851010 	str	r1, [r5, #16]
 7e0:	e1c320b4 	strh	r2, [r3, #4]
 7e4:	e24cb004 	sub	fp, ip, #4	; 0x4
 7e8:	e1a00003 	mov	r0, r3
 7ec:	e3a02000 	mov	r2, #0	; 0x0
 7f0:	e3e014ff 	mvn	r1, #-16777216	; 0xff000000
 7f4:	ea000001 	b	800 <init_flash+0x60>
 7f8:	e1520001 	cmp	r2, r1
 7fc:	0a000031 	beq	8c8 <init_flash+0x128>
 800:	e5d03020 	ldrb	r3, [r0, #32]
 804:	e3130001 	tst	r3, #1	; 0x1
 808:	e2822001 	add	r2, r2, #1	; 0x1
 80c:	0afffff9 	beq	7f8 <init_flash+0x58>
 810:	e3a0344e 	mov	r3, #1308622848	; 0x4e000000
 814:	e5d34010 	ldrb	r4, [r3, #16]
 818:	e1a00004 	mov	r0, r4
 81c:	ebffff89 	bl	648 <Uart0PrintChar>
 820:	e3a0002c 	mov	r0, #44	; 0x2c
 824:	ebffff87 	bl	648 <Uart0PrintChar>
 828:	e1a00004 	mov	r0, r4
 82c:	ebffff85 	bl	648 <Uart0PrintChar>
 830:	e3a0000d 	mov	r0, #13	; 0xd
 834:	ebffff83 	bl	648 <Uart0PrintChar>
 838:	e3a0000a 	mov	r0, #10	; 0xa
 83c:	ebffff81 	bl	648 <Uart0PrintChar>
 840:	e59f1090 	ldr	r1, [pc, #144]	; 8d8 <init_flash+0x138>
 844:	e3a02000 	mov	r2, #0	; 0x0
 848:	e7d13002 	ldrb	r3, [r1, r2]
 84c:	e1530004 	cmp	r3, r4
 850:	e2822001 	add	r2, r2, #1	; 0x1
 854:	0a000010 	beq	89c <init_flash+0xfc>
 858:	e3520014 	cmp	r2, #20	; 0x14
 85c:	1afffff9 	bne	848 <init_flash+0xa8>
 860:	e3a0244e 	mov	r2, #1308622848	; 0x4e000000
 864:	e5d20010 	ldrb	r0, [r2, #16]
 868:	e1a03220 	lsr	r3, r0, #4
 86c:	e2033003 	and	r3, r3, #3	; 0x3
 870:	e3a01801 	mov	r1, #65536	; 0x10000
 874:	e1a01311 	lsl	r1, r1, r3
 878:	e2000003 	and	r0, r0, #3	; 0x3
 87c:	e3a03b01 	mov	r3, #1024	; 0x400
 880:	e1a00013 	lsl	r0, r3, r0
 884:	e2412001 	sub	r2, r1, #1	; 0x1
 888:	e1120001 	tst	r2, r1
 88c:	e8850003 	stm	r5, {r0, r1}
 890:	0a000008 	beq	8b8 <init_flash+0x118>
 894:	e3a00000 	mov	r0, #0	; 0x0
 898:	e89da830 	ldm	sp, {r4, r5, fp, sp, pc}
 89c:	e3a03901 	mov	r3, #16384	; 0x4000
 8a0:	e3a02c02 	mov	r2, #512	; 0x200
 8a4:	e885000c 	stm	r5, {r2, r3}
 8a8:	e59f002c 	ldr	r0, [pc, #44]	; 8dc <init_flash+0x13c>
 8ac:	ebffff70 	bl	674 <ShowString>
 8b0:	e3a00001 	mov	r0, #1	; 0x1
 8b4:	e89da830 	ldm	sp, {r4, r5, fp, sp, pc}
 8b8:	e2403001 	sub	r3, r0, #1	; 0x1
 8bc:	e1130000 	tst	r3, r0
 8c0:	1afffff3 	bne	894 <init_flash+0xf4>
 8c4:	eafffff7 	b	8a8 <init_flash+0x108>
 8c8:	e59f0010 	ldr	r0, [pc, #16]	; 8e0 <init_flash+0x140>
 8cc:	ebffff68 	bl	674 <ShowString>
 8d0:	eaffffce 	b	810 <init_flash+0x70>
 8d4:	00000998 	.word	0x00000998
 8d8:	00000984 	.word	0x00000984
 8dc:	00000960 	.word	0x00000960
 8e0:	00000970 	.word	0x00000970
