
v-bios-th.elf:     file format elf32-littlearm


Disassembly of section .text:

00000000 <TH_START>:
   0:	ea000005 	b	1c <HandleReset>
   4:	00000078 	.word	0x00000078
   8:	0000007c 	.word	0x0000007c
   c:	00000080 	.word	0x00000080
  10:	00000084 	.word	0x00000084
  14:	00000088 	.word	0x00000088
  18:	0000008c 	.word	0x0000008c

0000001c <HandleReset>:
  1c:	e329f0d3 	msr	CPSR_fc, #211	; 0xd3
  20:	e3a0da01 	mov	sp, #4096	; 0x1000
  24:	eb000004 	bl	3c <AsmInitWatchDog>
  28:	eb000007 	bl	4c <AsmInitClock>
  2c:	eb000007 	bl	50 <AsmInitUart>
  30:	eb00000f 	bl	74 <AsminitSDRAM>
  34:	eb00007f 	bl	238 <main>

00000038 <loop>:
  38:	ebfffffe 	bl	38 <loop>

0000003c <AsmInitWatchDog>:
  3c:	e3a03453 	mov	r3, #1392508928	; 0x53000000
  40:	e3a04000 	mov	r4, #0	; 0x0
  44:	e5834000 	str	r4, [r3]
  48:	e1a0f00e 	mov	pc, lr

0000004c <AsmInitClock>:
  4c:	e1a0f00e 	mov	pc, lr

00000050 <AsmInitUart>:
  50:	e3a02245 	mov	r2, #1342177284	; 0x50000004
  54:	e3a03030 	mov	r3, #48	; 0x30
  58:	e5823000 	str	r3, [r2]
  5c:	e28f1030 	add	r1, pc, #48	; 0x30
  60:	e5b10001 	ldr	r0, [r1, #1]!
  64:	eb000011 	bl	b0 <SendByte>
  68:	e3500000 	cmp	r0, #0	; 0x0
  6c:	1afffffb 	bne	60 <AsmInitUart+0x10>
  70:	e1a0f00e 	mov	pc, lr

00000074 <AsminitSDRAM>:
  74:	e1a0f00e 	mov	pc, lr

00000078 <HandleUndefine>:
  78:	ea000004 	b	90 <Hang>

0000007c <HandleSwi>:
  7c:	ea000003 	b	90 <Hang>

00000080 <HandleIabt>:
  80:	ea000002 	b	90 <Hang>

00000084 <HandleDabt>:
  84:	ea000001 	b	90 <Hang>

00000088 <HandleIrq>:
  88:	ea000000 	b	90 <Hang>

0000008c <HandleFiq>:
  8c:	eaffffff 	b	90 <Hang>

00000090 <Hang>:
  90:	eafffffe 	b	90 <Hang>

00000094 <BootLoaderMsg>:
  94:	636c6557 	.word	0x636c6557
  98:	20656d6f 	.word	0x20656d6f
  9c:	6d206f74 	.word	0x6d206f74
  a0:	20492c65 	.word	0x20492c65
  a4:	76206d61 	.word	0x76206d61
  a8:	6f69622d 	.word	0x6f69622d
  ac:	000a0d73 	.word	0x000a0d73

000000b0 <SendByte>:
  b0:	e52db004 	push	{fp}		; (str fp, [sp, #-4]!)
  b4:	e28db000 	add	fp, sp, #0	; 0x0
  b8:	e24dd00c 	sub	sp, sp, #12	; 0xc
  bc:	e1a03000 	mov	r3, r0
  c0:	e54b3005 	strb	r3, [fp, #-5]
  c4:	e3a03205 	mov	r3, #1342177280	; 0x50000000
  c8:	e2833020 	add	r3, r3, #32	; 0x20
  cc:	e55b2005 	ldrb	r2, [fp, #-5]
  d0:	e5832000 	str	r2, [r3]
  d4:	e28bd000 	add	sp, fp, #0	; 0x0
  d8:	e8bd0800 	pop	{fp}
  dc:	e12fff1e 	bx	lr

000000e0 <ShowString>:
  e0:	e52db004 	push	{fp}		; (str fp, [sp, #-4]!)
  e4:	e28db000 	add	fp, sp, #0	; 0x0
  e8:	e24dd014 	sub	sp, sp, #20	; 0x14
  ec:	e50b0010 	str	r0, [fp, #-16]
  f0:	e3a03000 	mov	r3, #0	; 0x0
  f4:	e50b3008 	str	r3, [fp, #-8]
  f8:	ea000002 	b	108 <ShowString+0x28>
  fc:	e51b3008 	ldr	r3, [fp, #-8]
 100:	e2833001 	add	r3, r3, #1	; 0x1
 104:	e50b3008 	str	r3, [fp, #-8]
 108:	e51b3008 	ldr	r3, [fp, #-8]
 10c:	e3530009 	cmp	r3, #9	; 0x9
 110:	dafffff9 	ble	fc <ShowString+0x1c>
 114:	e28bd000 	add	sp, fp, #0	; 0x0
 118:	e8bd0800 	pop	{fp}
 11c:	e12fff1e 	bx	lr

00000120 <LoadFromFlash>:
 120:	e52db004 	push	{fp}		; (str fp, [sp, #-4]!)
 124:	e28db000 	add	fp, sp, #0	; 0x0
 128:	e24dd00c 	sub	sp, sp, #12	; 0xc
 12c:	e28bd000 	add	sp, fp, #0	; 0x0
 130:	e8bd0800 	pop	{fp}
 134:	e12fff1e 	bx	lr

00000138 <LoadFromUart>:
 138:	e52db004 	push	{fp}		; (str fp, [sp, #-4]!)
 13c:	e28db000 	add	fp, sp, #0	; 0x0
 140:	e24dd00c 	sub	sp, sp, #12	; 0xc
 144:	e28bd000 	add	sp, fp, #0	; 0x0
 148:	e8bd0800 	pop	{fp}
 14c:	e12fff1e 	bx	lr

00000150 <UartGetChar>:
 150:	e52db004 	push	{fp}		; (str fp, [sp, #-4]!)
 154:	e28db000 	add	fp, sp, #0	; 0x0
 158:	e24dd00c 	sub	sp, sp, #12	; 0xc
 15c:	e1a03000 	mov	r3, r0
 160:	e54b3005 	strb	r3, [fp, #-5]
 164:	e3a0306e 	mov	r3, #110	; 0x6e
 168:	e1a00003 	mov	r0, r3
 16c:	e28bd000 	add	sp, fp, #0	; 0x0
 170:	e8bd0800 	pop	{fp}
 174:	e12fff1e 	bx	lr

00000178 <THLoadBH>:
 178:	e92d4800 	push	{fp, lr}
 17c:	e28db004 	add	fp, sp, #4	; 0x4
 180:	e24dd010 	sub	sp, sp, #16	; 0x10
 184:	e59f0060 	ldr	r0, [pc, #96]	; 1ec <THLoadBH+0x74>
 188:	ebffffd4 	bl	e0 <ShowString>
 18c:	e59f005c 	ldr	r0, [pc, #92]	; 1f0 <THLoadBH+0x78>
 190:	ebffffd2 	bl	e0 <ShowString>
 194:	e59f0058 	ldr	r0, [pc, #88]	; 1f4 <THLoadBH+0x7c>
 198:	ebffffd0 	bl	e0 <ShowString>
 19c:	e3a00000 	mov	r0, #0	; 0x0
 1a0:	ebffffea 	bl	150 <UartGetChar>
 1a4:	e1a03000 	mov	r3, r0
 1a8:	e54b3005 	strb	r3, [fp, #-5]
 1ac:	e55b3005 	ldrb	r3, [fp, #-5]
 1b0:	e50b3010 	str	r3, [fp, #-16]
 1b4:	e51b3010 	ldr	r3, [fp, #-16]
 1b8:	e3530030 	cmp	r3, #48	; 0x30
 1bc:	0a000003 	beq	1d0 <THLoadBH+0x58>
 1c0:	e51b3010 	ldr	r3, [fp, #-16]
 1c4:	e3530031 	cmp	r3, #49	; 0x31
 1c8:	0a000002 	beq	1d8 <THLoadBH+0x60>
 1cc:	ea000003 	b	1e0 <THLoadBH+0x68>
 1d0:	ebffffd2 	bl	120 <LoadFromFlash>
 1d4:	eafffff0 	b	19c <THLoadBH+0x24>
 1d8:	ebffffd6 	bl	138 <LoadFromUart>
 1dc:	eaffffee 	b	19c <THLoadBH+0x24>
 1e0:	e59f0010 	ldr	r0, [pc, #16]	; 1f8 <THLoadBH+0x80>
 1e4:	ebffffbd 	bl	e0 <ShowString>
 1e8:	eaffffeb 	b	19c <THLoadBH+0x24>
 1ec:	0000027c 	.word	0x0000027c
 1f0:	00000290 	.word	0x00000290
 1f4:	000002b0 	.word	0x000002b0
 1f8:	000002d0 	.word	0x000002d0

000001fc <THInitClock>:
 1fc:	e52db004 	push	{fp}		; (str fp, [sp, #-4]!)
 200:	e28db000 	add	fp, sp, #0	; 0x0
 204:	e28bd000 	add	sp, fp, #0	; 0x0
 208:	e8bd0800 	pop	{fp}
 20c:	e12fff1e 	bx	lr

00000210 <THInitnUart>:
 210:	e52db004 	push	{fp}		; (str fp, [sp, #-4]!)
 214:	e28db000 	add	fp, sp, #0	; 0x0
 218:	e28bd000 	add	sp, fp, #0	; 0x0
 21c:	e8bd0800 	pop	{fp}
 220:	e12fff1e 	bx	lr

00000224 <THInitFlash>:
 224:	e52db004 	push	{fp}		; (str fp, [sp, #-4]!)
 228:	e28db000 	add	fp, sp, #0	; 0x0
 22c:	e28bd000 	add	sp, fp, #0	; 0x0
 230:	e8bd0800 	pop	{fp}
 234:	e12fff1e 	bx	lr

00000238 <main>:
 238:	e92d4800 	push	{fp, lr}
 23c:	e28db004 	add	fp, sp, #4	; 0x4
 240:	e24dd008 	sub	sp, sp, #8	; 0x8
 244:	e3a03203 	mov	r3, #805306368	; 0x30000000
 248:	e2833601 	add	r3, r3, #1048576	; 0x100000
 24c:	e50b3008 	str	r3, [fp, #-8]
 250:	ebffffe9 	bl	1fc <THInitClock>
 254:	ebffffed 	bl	210 <THInitnUart>
 258:	ebfffff1 	bl	224 <THInitFlash>
 25c:	ebffffc5 	bl	178 <THLoadBH>
 260:	e51b3008 	ldr	r3, [fp, #-8]
 264:	e1a0e00f 	mov	lr, pc
 268:	e12fff13 	bx	r3
 26c:	e3a03000 	mov	r3, #0	; 0x0
 270:	e1a00003 	mov	r0, r3
 274:	e24bd004 	sub	sp, fp, #4	; 0x4
 278:	e8bd8800 	pop	{fp, pc}
